000000000001f9d8 <gnu_get_libc_version@@GLIBC_2.17>:
   1f9d8:   d00007a0    adrp    x0, 115000 <in6addr_any@@GLIBC_2.17+0x1620>
   1f9dc:   91126000    add x0, x0, #0x498
   1f9e0:   d65f03c0    ret
   1f9e4:   d503201f    nop
   1f9e8:   a9bf7bfd    stp x29, x30, [sp,#-16]!
   1f9ec:   910003fd    mov x29, sp
   1f9f0:   97fffff0    bl  1f9b0 <__libc_start_main@@GLIBC_2.17+0x1f0>
   1f9f4:   52800000    mov w0, #0x0                    // #0
   1f9f8:   9401edbc    bl  9b0e8 <_exit@@GLIBC_2.17>
   1f9fc:   00000000    .inst   0x00000000 ; undefined
   1fa00:   a9b57bfd    stp x29, x30, [sp,#-176]!
   1fa04:   910003fd    mov x29, sp
   1fa08:   a90153f3    stp x19, x20, [sp,#16]
   1fa0c:   2a0103f4    mov w20, w1
   1fa10:   52800021    mov w1, #0x1                    // #1
   1fa14:   2a0003f3    mov w19, w0
   1fa18:   f90013f5    str x21, [sp,#32]
   1fa1c:   94026b43    bl  ba728 <__fcntl@@GLIBC_2.17>
   1fa20:   3100041f    cmn w0, #0x1
   1fa24:   540000a0    b.eq    1fa38 <gnu_get_libc_version@@GLIBC_2.17+0x60>
   1fa28:   a94153f3    ldp x19, x20, [sp,#16]
   1fa2c:   f94013f5    ldr x21, [sp,#32]
   1fa30:   a8cb7bfd    ldp x29, x30, [sp],#176
   1fa34:   d65f03c0    ret
   1fa38:   90000905    adrp    x5, 13f000 <h_errlist@@GLIBC_2.17+0x8b0>
   1fa3c:   f9472ca5    ldr x5, [x5,#3672]
   1fa44:   2a0003e4    mov w4, w0
   1fa48:   b86568c0    ldr w0, [x6,x5]
   1fa4c:   7100241f    cmp w0, #0x9
   1fa50:   54fffec1    b.ne    1fa28 <gnu_get_libc_version@@GLIBC_2.17+0x50>
   1fa54:   12000680    and w0, w20, #0x3
   1fa58:   7100041f    cmp w0, #0x1
   1fa5c:   540003a0    b.eq    1fad0 <gnu_get_libc_version@@GLIBC_2.17+0xf8>
   1fa60:   d00007a1    adrp    x1, 115000 <in6addr_any@@GLIBC_2.17+0x1620>
   1fa64:   d2802075    mov x21, #0x103                     // #259
   1fa68:   9112e021    add x1, x1, #0x4b8
   1fa6c:   92800c60    mov x0, #0xffffffffffffff9c     // #-100
   1fa70:   93407e82    sxtw    x2, w20
   1fa74:   d2800003    mov x3, #0x0                    // #0
   1fa78:   d2800708    mov x8, #0x38                   // #56
   1fa7c:   d4000001    svc #0x0
   1fa80:   b140041f    cmn x0, #0x1, lsl #12
   1fa84:   540002e8    b.hi    1fae0 <gnu_get_libc_version@@GLIBC_2.17+0x108>
   1fa88:   2a0003e4    mov w4, w0
   1fa8c:   6b04027f    cmp w19, w4
   1fa90:   540001a1    b.ne    1fac4 <gnu_get_libc_version@@GLIBC_2.17+0xec>
   1fa94:   9100c3a2    add x2, x29, #0x30
   1fa98:   2a1303e1    mov w1, w19
   1fa9c:   52800000    mov w0, #0x0                    // #0
   1faa0:   94026762    bl  b9828 <__fxstat@@GLIBC_2.17>
   1faa4:   35000100    cbnz    w0, 1fac4 <gnu_get_libc_version@@GLIBC_2.17+0xec>
   1faa8:   b94043a0    ldr w0, [x29,#64]
   1faac:   12140c00    and w0, w0, #0xf000
   1fab0:   7140081f    cmp w0, #0x2, lsl #12
   1fab4:   54000081    b.ne    1fac4 <gnu_get_libc_version@@GLIBC_2.17+0xec>
   1fab8:   f9402ba0    ldr x0, [x29,#80]
   1fabc:   eb15001f    cmp x0, x21
   1fac0:   54fffb40    b.eq    1fa28 <gnu_get_libc_version@@GLIBC_2.17+0x50>
   1fac4:   d4207d00    brk #0x3e8
   1fac8:   d4207d00    brk #0x3e8
   1facc:   17fffffe    b   1fac4 <gnu_get_libc_version@@GLIBC_2.17+0xec>
   1fad0:   d00007a1    adrp    x1, 115000 <in6addr_any@@GLIBC_2.17+0x1620>
   1fad4:   d28020f5    mov x21, #0x107                     // #263
   1fad8:   9112a021    add x1, x1, #0x4a8
   1fadc:   17ffffe4    b   1fa6c <gnu_get_libc_version@@GLIBC_2.17+0x94>
   1fae0:   4b0003e0    neg w0, w0
   1fae4:   b82568c0    str w0, [x6,x5]
   1fae8:   17ffffe9    b   1fa8c <gnu_get_libc_version@@GLIBC_2.17+0xb4>
   1faec:   d503201f    nop
   1faf0:   a9bf7bfd    stp x29, x30, [sp,#-16]!
   1faf4:   52900021    mov w1, #0x8001                 // #32769
   1faf8:   52800000    mov w0, #0x0                    // #0
   1fafc:   910003fd    mov x29, sp
   1fb00:   97ffffc0    bl  1fa00 <gnu_get_libc_version@@GLIBC_2.17+0x28>
   1fb04:   52900001    mov w1, #0x8000                 // #32768
   1fb08:   52800020    mov w0, #0x1                    // #1
   1fb0c:   97ffffbd    bl  1fa00 <gnu_get_libc_version@@GLIBC_2.17+0x28>
   1fb10:   a8c17bfd    ldp x29, x30, [sp],#16
   1fb14:   52900001    mov w1, #0x8000                 // #32768
   1fb18:   52800040    mov w0, #0x2                    // #2
   1fb1c:   17ffffb9    b   1fa00 <gnu_get_libc_version@@GLIBC_2.17+0x28>
   1fb20:   a9bd7bfd    stp x29, x30, [sp,#-48]!
   1fb24:   910003fd    mov x29, sp
   1fb28:   f9000bf3    str x19, [sp,#16]
   1fb2c:   b0000933    adrp    x19, 144000 <__curbrk@@GLIBC_2.17+0x13a0>
   1fb30:   f9466a63    ldr x3, [x19,#3280]
   1fb34:   b40000e3    cbz x3, 1fb50 <gnu_get_libc_version@@GLIBC_2.17+0x178>
   1fb38:   90000902    adrp    x2, 13f000 <h_errlist@@GLIBC_2.17+0x8b0>
   1fb3c:   f9472842    ldr x2, [x2,#3664]
   1fb40:   f9400041    ldr x1, [x2]
   1fb44:   ca010061    eor x1, x3, x1
   1fb48:   d63f0020    blr x1
   1fb4c:   d503201f    nop
   1fb50:   f90017a0    str x0, [x29,#40]
   1fb54:   97fffc3b    bl  1ec40 <__tls_get_addr@plt+0x20>
   1fb58:   f9466a63    ldr x3, [x19,#3280]
   1fb5c:   f94017a0    ldr x0, [x29,#40]
   1fb60:   17fffff6    b   1fb38 <gnu_get_libc_version@@GLIBC_2.17+0x160>
   1fb64:   d503201f    nop
   1fb68:   a9bc7bfd    stp x29, x30, [sp,#-64]!
   1fb6c:   910003fd    mov x29, sp
   1fb70:   f9000bf3    str x19, [sp,#16]
   1fb74:   d0000913    adrp    x19, 141000 <_IO_2_1_stdin_@@GLIBC_2.17+0x870>
   1fb78:   f9439667    ldr x7, [x19,#1832]
   1fb7c:   b4000127    cbz x7, 1fba0 <gnu_get_libc_version@@GLIBC_2.17+0x1c8>
   1fb80:   90000906    adrp    x6, 13f000 <h_errlist@@GLIBC_2.17+0x8b0>
   1fb84:   f9400bf3    ldr x19, [sp,#16]
   1fb88:   f94728c6    ldr x6, [x6,#3664]
   1fb8c:   f94000c5    ldr x5, [x6]
   1fb90:   a8c47bfd    ldp x29, x30, [sp],#64
   1fb94:   ca0500e5    eor x5, x7, x5
   1fb98:   d61f00a0    br  x5
   1fb9c:   d503201f    nop
   1fba0:   a9020fa4    stp x4, x3, [x29,#32]
   1fba4:   f9001ba2    str x2, [x29,#48]
   1fba8:   290703a1    stp w1, w0, [x29,#56]
   1fbac:   97fffc25    bl  1ec40 <__tls_get_addr@plt+0x20>
   1fbb0:   90000906    adrp    x6, 13f000 <h_errlist@@GLIBC_2.17+0x8b0>
   1fbb4:   f9439667    ldr x7, [x19,#1832]
   1fbb8:   294703a1    ldp w1, w0, [x29,#56]
   1fbbc:   f94728c6    ldr x6, [x6,#3664]
   1fbc0:   a9420fa4    ldp x4, x3, [x29,#32]
   1fbc4:   f9401ba2    ldr x2, [x29,#48]
   1fbc8:   f94000c5    ldr x5, [x6]
   1fbcc:   f9400bf3    ldr x19, [sp,#16]
   1fbd0:   a8c47bfd    ldp x29, x30, [sp],#64
   1fbd4:   ca0500e5    eor x5, x7, x5
   1fbd8:   d61f00a0    br  x5
   1fbdc:   00000000    .inst   0x00000000 ; undefined
   1fbe0:   d53bd040    mrs x0, tpidr_el0
   1fbe4:   d65f03c0    ret

000000000001fbe8 <__errno_location@@GLIBC_2.17>:
   1fbe8:   90000900    adrp    x0, 13f000 <h_errlist@@GLIBC_2.17+0x8b0>
   1fbec:   f9472c00    ldr x0, [x0,#3672]
   1fbf0:   d53bd041    mrs x1, tpidr_el0
   1fbf4:   8b000020    add x0, x1, x0
   1fbf8:   d65f03c0    ret
   1fbfc:   00000000    .inst   0x00000000 ; undefined
   1fc00:   39400022    ldrb    w2, [x1]
   1fc04:   34000662    cbz w2, 1fcd0 <__errno_location@@GLIBC_2.17+0xe8>
   1fc08:   f00008e3    adrp    x3, 13e000 <_sys_siglist@@GLIBC_2.17+0x8>
   1fc0c:   52800009    mov w9, #0x0                    // #0
   1fc10:   91352063    add x3, x3, #0xd48
   1fc14:   52800747    mov w7, #0x3a                   // #58
   1fc18:   f9403466    ldr x6, [x3,#104]
   1fc1c:   f9403c68    ldr x8, [x3,#120]
   1fc20:   14000005    b   1fc34 <__errno_location@@GLIBC_2.17+0x4c>
   1fc24:   d503201f    nop
   1fc28:   54000440    b.eq    1fcb0 <__errno_location@@GLIBC_2.17+0xc8>
   1fc2c:   38401c22    ldrb    w2, [x1,#1]!
   1fc30:   34000282    cbz w2, 1fc80 <__errno_location@@GLIBC_2.17+0x98>
   1fc34:   2a0203e5    mov w5, w2
   1fc38:   5100b043    sub w3, w2, #0x2c
   1fc3c:   53001c63    uxtb    w3, w3
   1fc40:   786578c4    ldrh    w4, [x6,x5,lsl #1]
   1fc44:   121d0084    and w4, w4, #0x8
   1fc48:   7100009f    cmp w4, #0x0
   1fc4c:   7a420860    ccmp    w3, #0x2, #0x0, eq
   1fc50:   1a9f87e4    cset    w4, ls
   1fc54:   71017c5f    cmp w2, #0x5f
   1fc58:   7a471044    ccmp    w2, w7, #0x4, ne
   1fc5c:   1a9f17e3    cset    w3, eq
   1fc60:   7100bc5f    cmp w2, #0x2f
   1fc64:   2a030083    orr w3, w4, w3
   1fc68:   34fffe03    cbz w3, 1fc28 <__errno_location@@GLIBC_2.17+0x40>
   1fc6c:   91000400    add x0, x0, #0x1
   1fc70:   b8657902    ldr w2, [x8,x5,lsl #2]
   1fc74:   381ff002    sturb   w2, [x0,#-1]
   1fc78:   38401c22    ldrb    w2, [x1,#1]!
   1fc7c:   35fffdc2    cbnz    w2, 1fc34 <__errno_location@@GLIBC_2.17+0x4c>
   1fc80:   7100053f    cmp w9, #0x1
   1fc84:   5400010c    b.gt    1fca4 <__errno_location@@GLIBC_2.17+0xbc>
   1fc88:   528005e2    mov w2, #0x2f                   // #47
   1fc8c:   91000401    add x1, x0, #0x1
   1fc90:   39000002    strb    w2, [x0]
   1fc94:   350001a9    cbnz    w9, 1fcc8 <__errno_location@@GLIBC_2.17+0xe0>
   1fc98:   528005e2    mov w2, #0x2f                   // #47
   1fc9c:   91000420    add x0, x1, #0x1
   1fca0:   39000022    strb    w2, [x1]
   1fca4:   3900001f    strb    wzr, [x0]
   1fca8:   d65f03c0    ret
   1fcac:   d503201f    nop
   1fcb0:   11000529    add w9, w9, #0x1
   1fcb4:   71000d3f    cmp w9, #0x3
   1fcb8:   54ffff60    b.eq    1fca4 <__errno_location@@GLIBC_2.17+0xbc>
   1fcbc:   39000002    strb    w2, [x0]
   1fcc0:   91000400    add x0, x0, #0x1
   1fcc4:   17ffffda    b   1fc2c <__errno_location@@GLIBC_2.17+0x44>
   1fcc8:   aa0103e0    mov x0, x1
   1fccc:   17fffff6    b   1fca4 <__errno_location@@GLIBC_2.17+0xbc>
   1fcd0:   528005e2    mov w2, #0x2f                   // #47
   1fcd4:   91000401    add x1, x0, #0x1
   1fcd8:   39000002    strb    w2, [x0]
   1fcdc:   17ffffef    b   1fc98 <__errno_location@@GLIBC_2.17+0xb0>

